; Function Attrs: nounwind sspstrong uwtable
define internal noundef i64 @enum_tally(i32 noundef %0, ptr noundef readonly captures(none) %1, i64 noundef %2) #0 {
  %or.cond.i = icmp ugt i32 %0, 1
  br i1 %or.cond.i, label %4, label %rb_check_arity.exit

4:                                                ; preds = %3
  tail call void @rb_error_arity(i32 noundef %0, i32 noundef 0, i32 noundef 1) #15
  unreachable

rb_check_arity.exit:                              ; preds = %3
  %.not = icmp eq i32 %0, 0
  br i1 %.not, label %20, label %5

5:                                                ; preds = %rb_check_arity.exit
  %6 = load i64, ptr %1, align 8, !tbaa !7
  %7 = tail call i64 @rb_to_hash_type(i64 noundef %6) #14
  %8 = icmp eq i64 %7, 0
  %9 = and i64 %7, 7
  %10 = icmp ne i64 %9, 0
  %11 = or i1 %8, %10
  br i1 %11, label %RB_OBJ_FROZEN.exit.thread.i, label %RB_FL_ABLE.exit.i.i, !prof !68

RB_FL_ABLE.exit.i.i:                              ; preds = %5
  %12 = inttoptr i64 %7 to ptr
  %13 = load i64, ptr %12, align 8, !tbaa !20
  %14 = and i64 %13, 31
  %.not.i.i = icmp eq i64 %14, 27
  %15 = and i64 %13, 2048
  %16 = icmp ne i64 %15, 0
  %or.cond.i4 = or i1 %.not.i.i, %16
  br i1 %or.cond.i4, label %RB_OBJ_FROZEN.exit.thread.i, label %rbimpl_RB_TYPE_P_fastpath.exit.i, !prof !69

RB_OBJ_FROZEN.exit.thread.i:                      ; preds = %RB_FL_ABLE.exit.i.i, %5
  tail call void @rb_error_frozen_object(i64 noundef %7) #15
  unreachable

rbimpl_RB_TYPE_P_fastpath.exit.i:                 ; preds = %RB_FL_ABLE.exit.i.i
  %17 = icmp ne i64 %14, 5
  %18 = and i64 %13, 49152
  %.not.i = icmp eq i64 %18, 0
  %or.cond8.i = or i1 %17, %.not.i
  br i1 %or.cond8.i, label %rb_check_frozen_inline.exit, label %19, !prof !70

19:                                               ; preds = %rbimpl_RB_TYPE_P_fastpath.exit.i
  tail call void @rb_str_modify(i64 noundef %7) #14
  br label %rb_check_frozen_inline.exit

20:                                               ; preds = %rb_check_arity.exit
  %21 = tail call i64 @rb_hash_new() #14
  br label %rb_check_frozen_inline.exit

rb_check_frozen_inline.exit:                      ; preds = %19, %rbimpl_RB_TYPE_P_fastpath.exit.i, %20
  %.0 = phi i64 [ %21, %20 ], [ %7, %rbimpl_RB_TYPE_P_fastpath.exit.i ], [ %7, %19 ]
  %22 = tail call i64 @rb_block_call(i64 noundef %2, i64 noundef 3073, i32 noundef 0, ptr noundef null, ptr noundef nonnull @tally_i, i64 noundef %.0) #14
  ret i64 %.0
}